; Function Attrs: nounwind uwtable
define internal fastcc void @Io_NtkEdgelistWriteSubckt(ptr noundef captures(none) %0, ptr noundef readonly captures(none) %1) unnamed_addr #0 {
  %3 = getelementptr inbounds nuw i8, ptr %1, i64 56
  %4 = load ptr, ptr %3, align 8, !tbaa !52
  %5 = getelementptr i8, ptr %4, i64 8
  %.val38 = load ptr, ptr %5, align 8, !tbaa !8
  %6 = tail call i32 (ptr, ptr, ...) @fprintf(ptr noundef %0, ptr noundef nonnull @.str.61, ptr noundef %.val38) #11
  %7 = getelementptr i8, ptr %4, i64 40
  %.val43 = load ptr, ptr %7, align 8, !tbaa !39
  %8 = getelementptr i8, ptr %.val43, i64 4
  %.val.val44 = load i32, ptr %8, align 4, !tbaa !31
  %9 = icmp sgt i32 %.val.val44, 0
  br i1 %9, label %.lr.ph, label %.critedge.preheader

.lr.ph:                                           ; preds = %2
  %10 = getelementptr i8, ptr %1, i64 32
  br label %15

.critedge.preheader:                              ; preds = %15, %2
  %11 = getelementptr i8, ptr %4, i64 48
  %.val3247 = load ptr, ptr %11, align 8, !tbaa !62
  %12 = getelementptr i8, ptr %.val3247, i64 4
  %.val32.val48 = load i32, ptr %12, align 4, !tbaa !31
  %13 = icmp sgt i32 %.val32.val48, 0
  br i1 %13, label %.lr.ph51, label %.critedge2

.lr.ph51:                                         ; preds = %.critedge.preheader
  %14 = getelementptr i8, ptr %1, i64 48
  br label %.critedge

15:                                               ; preds = %.lr.ph, %15
  %indvars.iv = phi i64 [ 0, %.lr.ph ], [ %indvars.iv.next, %15 ]
  %.val46 = phi ptr [ %.val43, %.lr.ph ], [ %.val, %15 ]
  %16 = getelementptr i8, ptr %.val46, i64 8
  %.val27.val = load ptr, ptr %16, align 8, !tbaa !33
  %17 = getelementptr inbounds nuw ptr, ptr %.val27.val, i64 %indvars.iv
  %18 = load ptr, ptr %17, align 8, !tbaa !34
  %.val30 = load ptr, ptr %18, align 8, !tbaa !41
  %19 = getelementptr i8, ptr %18, i64 48
  %.val31 = load ptr, ptr %19, align 8, !tbaa !44
  %20 = getelementptr i8, ptr %.val30, i64 32
  %.val30.val = load ptr, ptr %20, align 8, !tbaa !45
  %.val31.val = load i32, ptr %.val31, align 4, !tbaa !26
  %21 = getelementptr i8, ptr %.val30.val, i64 8
  %.val30.val.val = load ptr, ptr %21, align 8, !tbaa !33
  %22 = sext i32 %.val31.val to i64
  %23 = getelementptr inbounds ptr, ptr %.val30.val.val, i64 %22
  %24 = load ptr, ptr %23, align 8, !tbaa !34
  %25 = tail call ptr @Abc_ObjName(ptr noundef %24) #11
  %26 = tail call i32 (ptr, ptr, ...) @fprintf(ptr noundef %0, ptr noundef nonnull @.str.23, ptr noundef %25) #11
  %.val39 = load ptr, ptr %1, align 8, !tbaa !41
  %.val40 = load ptr, ptr %10, align 8, !tbaa !51
  %27 = getelementptr i8, ptr %.val39, i64 32
  %.val39.val = load ptr, ptr %27, align 8, !tbaa !45
  %28 = getelementptr i8, ptr %.val39.val, i64 8
  %.val39.val.val = load ptr, ptr %28, align 8, !tbaa !33
  %29 = getelementptr inbounds nuw i32, ptr %.val40, i64 %indvars.iv
  %30 = load i32, ptr %29, align 4, !tbaa !26
  %31 = sext i32 %30 to i64
  %32 = getelementptr inbounds ptr, ptr %.val39.val.val, i64 %31
  %33 = load ptr, ptr %32, align 8, !tbaa !34
  %.val36 = load ptr, ptr %33, align 8, !tbaa !41
  %34 = getelementptr i8, ptr %33, i64 32
  %.val37 = load ptr, ptr %34, align 8, !tbaa !51
  %35 = getelementptr i8, ptr %.val36, i64 32
  %.val36.val = load ptr, ptr %35, align 8, !tbaa !45
  %.val37.val = load i32, ptr %.val37, align 4, !tbaa !26
  %36 = getelementptr i8, ptr %.val36.val, i64 8
  %.val36.val.val = load ptr, ptr %36, align 8, !tbaa !33
  %37 = sext i32 %.val37.val to i64
  %38 = getelementptr inbounds ptr, ptr %.val36.val.val, i64 %37
  %39 = load ptr, ptr %38, align 8, !tbaa !34
  %40 = tail call ptr @Abc_ObjName(ptr noundef %39) #11
  %41 = tail call i32 (ptr, ptr, ...) @fprintf(ptr noundef %0, ptr noundef nonnull @.str.62, ptr noundef %40) #11
  %indvars.iv.next = add nuw nsw i64 %indvars.iv, 1
  %.val = load ptr, ptr %7, align 8, !tbaa !39
  %42 = getelementptr i8, ptr %.val, i64 4
  %.val.val = load i32, ptr %42, align 4, !tbaa !31
  %43 = sext i32 %.val.val to i64
  %44 = icmp slt i64 %indvars.iv.next, %43
  br i1 %44, label %15, label %.critedge.preheader, !llvm.loop !104

.critedge:                                        ; preds = %.lr.ph51, %.critedge
  %indvars.iv53 = phi i64 [ 0, %.lr.ph51 ], [ %indvars.iv.next54, %.critedge ]
  %.val3250 = phi ptr [ %.val3247, %.lr.ph51 ], [ %.val32, %.critedge ]
  %45 = getelementptr i8, ptr %.val3250, i64 8
  %.val33.val = load ptr, ptr %45, align 8, !tbaa !33
  %46 = getelementptr inbounds nuw ptr, ptr %.val33.val, i64 %indvars.iv53
  %47 = load ptr, ptr %46, align 8, !tbaa !34
  %.val34 = load ptr, ptr %47, align 8, !tbaa !41
  %48 = getelementptr i8, ptr %47, i64 32
  %.val35 = load ptr, ptr %48, align 8, !tbaa !51
  %49 = getelementptr i8, ptr %.val34, i64 32
  %.val34.val = load ptr, ptr %49, align 8, !tbaa !45
  %.val35.val = load i32, ptr %.val35, align 4, !tbaa !26
  %50 = getelementptr i8, ptr %.val34.val, i64 8
  %.val34.val.val = load ptr, ptr %50, align 8, !tbaa !33
  %51 = sext i32 %.val35.val to i64
  %52 = getelementptr inbounds ptr, ptr %.val34.val.val, i64 %51
  %53 = load ptr, ptr %52, align 8, !tbaa !34
  %54 = tail call ptr @Abc_ObjName(ptr noundef %53) #11
  %55 = tail call i32 (ptr, ptr, ...) @fprintf(ptr noundef %0, ptr noundef nonnull @.str.23, ptr noundef %54) #11
  %.val41 = load ptr, ptr %1, align 8, !tbaa !41
  %.val42 = load ptr, ptr %14, align 8, !tbaa !44
  %56 = getelementptr i8, ptr %.val41, i64 32
  %.val41.val = load ptr, ptr %56, align 8, !tbaa !45
  %57 = getelementptr i8, ptr %.val41.val, i64 8
  %.val41.val.val = load ptr, ptr %57, align 8, !tbaa !33
  %58 = getelementptr inbounds nuw i32, ptr %.val42, i64 %indvars.iv53
  %59 = load i32, ptr %58, align 4, !tbaa !26
  %60 = sext i32 %59 to i64
  %61 = getelementptr inbounds ptr, ptr %.val41.val.val, i64 %60
  %62 = load ptr, ptr %61, align 8, !tbaa !34
  %.val28 = load ptr, ptr %62, align 8, !tbaa !41
  %63 = getelementptr i8, ptr %62, i64 48
  %.val29 = load ptr, ptr %63, align 8, !tbaa !44
  %64 = getelementptr i8, ptr %.val28, i64 32
  %.val28.val = load ptr, ptr %64, align 8, !tbaa !45
  %.val29.val = load i32, ptr %.val29, align 4, !tbaa !26
  %65 = getelementptr i8, ptr %.val28.val, i64 8
  %.val28.val.val = load ptr, ptr %65, align 8, !tbaa !33
  %66 = sext i32 %.val29.val to i64
  %67 = getelementptr inbounds ptr, ptr %.val28.val.val, i64 %66
  %68 = load ptr, ptr %67, align 8, !tbaa !34
  %69 = tail call ptr @Abc_ObjName(ptr noundef %68) #11
  %70 = tail call i32 (ptr, ptr, ...) @fprintf(ptr noundef %0, ptr noundef nonnull @.str.62, ptr noundef %69) #11
  %indvars.iv.next54 = add nuw nsw i64 %indvars.iv53, 1
  %.val32 = load ptr, ptr %11, align 8, !tbaa !62
  %71 = getelementptr i8, ptr %.val32, i64 4
  %.val32.val = load i32, ptr %71, align 4, !tbaa !31
  %72 = sext i32 %.val32.val to i64
  %73 = icmp slt i64 %indvars.iv.next54, %72
  br i1 %73, label %.critedge, label %.critedge2, !llvm.loop !105

.critedge2:                                       ; preds = %.critedge, %.critedge.preheader
  %fputc = tail call i32 @fputc(i32 10, ptr %0)
  ret void
}